target datalayout = "e-m:e-p270:32:32-p271:32:32-p272:64:64-i64:64-i128:128-f80:128-n8:16:32:64-S128"
target triple = "x86_64-pc-linux-gnu"

%struct.FFTextReader = type { i32, ptr, [8 x i8], i32, i32, %struct.FFIOContext }
%struct.FFIOContext = type { %struct.AVIOContext, ptr, i32, i32, i64, i64, i64, i64, i32, i32, i32, i64 }
%struct.AVIOContext = type { ptr, ptr, i32, ptr, ptr, ptr, ptr, ptr, ptr, i64, i32, i32, i32, i32, i32, i64, ptr, ptr, ptr, ptr, i32, i32, ptr, ptr, ptr, i32, ptr, i64, i64 }

@.str = private unnamed_addr constant [3 x i8] c"\FF\FE\00", align 1
@.str.1 = private unnamed_addr constant [3 x i8] c"\FE\FF\00", align 1
@.str.2 = private unnamed_addr constant [4 x i8] c"\EF\BB\BF\00", align 1
@.str.3 = private unnamed_addr constant [79 x i8] c"UTF16 is automatically converted to UTF8, do not specify a character encoding\0A\00", align 1

; Function Attrs: nounwind uwtable
define void @ff_text_init_avio(ptr noundef %0, ptr noundef %1, ptr noundef %2) #0 {
  %4 = alloca ptr, align 8
  %5 = alloca ptr, align 8
  %6 = alloca ptr, align 8
  %7 = alloca i32, align 4
  store ptr %0, ptr %4, align 8, !tbaa !4
  store ptr %1, ptr %5, align 8, !tbaa !4
  store ptr %2, ptr %6, align 8, !tbaa !8
  call void @llvm.lifetime.start.p0(i64 4, ptr %7) #9
  %8 = load ptr, ptr %6, align 8, !tbaa !8
  %9 = load ptr, ptr %5, align 8, !tbaa !4
  %10 = getelementptr inbounds nuw %struct.FFTextReader, ptr %9, i32 0, i32 1
  store ptr %8, ptr %10, align 8, !tbaa !10
  %11 = load ptr, ptr %5, align 8, !tbaa !4
  %12 = getelementptr inbounds nuw %struct.FFTextReader, ptr %11, i32 0, i32 4
  store i32 0, ptr %12, align 4, !tbaa !18
  %13 = load ptr, ptr %5, align 8, !tbaa !4
  %14 = getelementptr inbounds nuw %struct.FFTextReader, ptr %13, i32 0, i32 3
  store i32 0, ptr %14, align 8, !tbaa !19
  %15 = load ptr, ptr %5, align 8, !tbaa !4
  %16 = getelementptr inbounds nuw %struct.FFTextReader, ptr %15, i32 0, i32 0
  store i32 0, ptr %16, align 8, !tbaa !20
  store i32 0, ptr %7, align 4, !tbaa !21
  br label %17

17:                                               ; preds = %34, %3
  %18 = load i32, ptr %7, align 4, !tbaa !21
  %19 = icmp slt i32 %18, 2
  br i1 %19, label %20, label %37

20:                                               ; preds = %17
  %21 = load ptr, ptr %5, align 8, !tbaa !4
  %22 = getelementptr inbounds nuw %struct.FFTextReader, ptr %21, i32 0, i32 1
  %23 = load ptr, ptr %22, align 8, !tbaa !10
  %24 = call i32 @avio_r8(ptr noundef %23)
  %25 = trunc i32 %24 to i8
  %26 = load ptr, ptr %5, align 8, !tbaa !4
  %27 = getelementptr inbounds nuw %struct.FFTextReader, ptr %26, i32 0, i32 2
  %28 = load ptr, ptr %5, align 8, !tbaa !4
  %29 = getelementptr inbounds nuw %struct.FFTextReader, ptr %28, i32 0, i32 4
  %30 = load i32, ptr %29, align 4, !tbaa !18
  %31 = add nsw i32 %30, 1
  store i32 %31, ptr %29, align 4, !tbaa !18
  %32 = sext i32 %30 to i64
  %33 = getelementptr inbounds [8 x i8], ptr %27, i64 0, i64 %32
  store i8 %25, ptr %33, align 1, !tbaa !22
  br label %34

34:                                               ; preds = %20
  %35 = load i32, ptr %7, align 4, !tbaa !21
  %36 = add nsw i32 %35, 1
  store i32 %36, ptr %7, align 4, !tbaa !21
  br label %17, !llvm.loop !23

37:                                               ; preds = %17
  %38 = load ptr, ptr %5, align 8, !tbaa !4
  %39 = getelementptr inbounds nuw %struct.FFTextReader, ptr %38, i32 0, i32 2
  %40 = getelementptr inbounds [8 x i8], ptr %39, i64 0, i64 0
  %41 = call i32 @strncmp(ptr noundef @.str, ptr noundef %40, i64 noundef 2) #10
  %42 = icmp eq i32 %41, 0
  br i1 %42, label %43, label %50

43:                                               ; preds = %37
  %44 = load ptr, ptr %5, align 8, !tbaa !4
  %45 = getelementptr inbounds nuw %struct.FFTextReader, ptr %44, i32 0, i32 0
  store i32 1, ptr %45, align 8, !tbaa !20
  %46 = load ptr, ptr %5, align 8, !tbaa !4
  %47 = getelementptr inbounds nuw %struct.FFTextReader, ptr %46, i32 0, i32 3
  %48 = load i32, ptr %47, align 8, !tbaa !19
  %49 = add nsw i32 %48, 2
  store i32 %49, ptr %47, align 8, !tbaa !19
  br label %89

50:                                               ; preds = %37
  %51 = load ptr, ptr %5, align 8, !tbaa !4
  %52 = getelementptr inbounds nuw %struct.FFTextReader, ptr %51, i32 0, i32 2
  %53 = getelementptr inbounds [8 x i8], ptr %52, i64 0, i64 0
  %54 = call i32 @strncmp(ptr noundef @.str.1, ptr noundef %53, i64 noundef 2) #10
  %55 = icmp eq i32 %54, 0
  br i1 %55, label %56, label %63

56:                                               ; preds = %50
  %57 = load ptr, ptr %5, align 8, !tbaa !4
  %58 = getelementptr inbounds nuw %struct.FFTextReader, ptr %57, i32 0, i32 0
  store i32 2, ptr %58, align 8, !tbaa !20
  %59 = load ptr, ptr %5, align 8, !tbaa !4
  %60 = getelementptr inbounds nuw %struct.FFTextReader, ptr %59, i32 0, i32 3
  %61 = load i32, ptr %60, align 8, !tbaa !19
  %62 = add nsw i32 %61, 2
  store i32 %62, ptr %60, align 8, !tbaa !19
  br label %88

63:                                               ; preds = %50
  %64 = load ptr, ptr %5, align 8, !tbaa !4
  %65 = getelementptr inbounds nuw %struct.FFTextReader, ptr %64, i32 0, i32 1
  %66 = load ptr, ptr %65, align 8, !tbaa !10
  %67 = call i32 @avio_r8(ptr noundef %66)
  %68 = trunc i32 %67 to i8
  %69 = load ptr, ptr %5, align 8, !tbaa !4
  %70 = getelementptr inbounds nuw %struct.FFTextReader, ptr %69, i32 0, i32 2
  %71 = load ptr, ptr %5, align 8, !tbaa !4
  %72 = getelementptr inbounds nuw %struct.FFTextReader, ptr %71, i32 0, i32 4
  %73 = load i32, ptr %72, align 4, !tbaa !18
  %74 = add nsw i32 %73, 1
  store i32 %74, ptr %72, align 4, !tbaa !18
  %75 = sext i32 %73 to i64
  %76 = getelementptr inbounds [8 x i8], ptr %70, i64 0, i64 %75
  store i8 %68, ptr %76, align 1, !tbaa !22
  %77 = load ptr, ptr %5, align 8, !tbaa !4
  %78 = getelementptr inbounds nuw %struct.FFTextReader, ptr %77, i32 0, i32 2
  %79 = getelementptr inbounds [8 x i8], ptr %78, i64 0, i64 0
  %80 = call i32 @strncmp(ptr noundef @.str.2, ptr noundef %79, i64 noundef 3) #10
  %81 = icmp eq i32 %80, 0
  br i1 %81, label %82, label %87

82:                                               ; preds = %63
  %83 = load ptr, ptr %5, align 8, !tbaa !4
  %84 = getelementptr inbounds nuw %struct.FFTextReader, ptr %83, i32 0, i32 3
  %85 = load i32, ptr %84, align 8, !tbaa !19
  %86 = add nsw i32 %85, 3
  store i32 %86, ptr %84, align 8, !tbaa !19
  br label %87

87:                                               ; preds = %82, %63
  br label %88

88:                                               ; preds = %87, %56
  br label %89

89:                                               ; preds = %88, %43
  %90 = load ptr, ptr %4, align 8, !tbaa !4
  %91 = icmp ne ptr %90, null
  br i1 %91, label %92, label %104

92:                                               ; preds = %89
  %93 = load ptr, ptr %5, align 8, !tbaa !4
  %94 = getelementptr inbounds nuw %struct.FFTextReader, ptr %93, i32 0, i32 0
  %95 = load i32, ptr %94, align 8, !tbaa !20
  %96 = icmp eq i32 %95, 1
  br i1 %96, label %102, label %97

97:                                               ; preds = %92
  %98 = load ptr, ptr %5, align 8, !tbaa !4
  %99 = getelementptr inbounds nuw %struct.FFTextReader, ptr %98, i32 0, i32 0
  %100 = load i32, ptr %99, align 8, !tbaa !20
  %101 = icmp eq i32 %100, 2
  br i1 %101, label %102, label %104

102:                                              ; preds = %97, %92
  %103 = load ptr, ptr %4, align 8, !tbaa !4
  call void (ptr, i32, ptr, ...) @av_log(ptr noundef %103, i32 noundef 32, ptr noundef @.str.3)
  br label %104

104:                                              ; preds = %102, %97, %89
  call void @llvm.lifetime.end.p0(i64 4, ptr %7) #9
  ret void
}