; Function Attrs: nounwind uwtable
define void @ff_text_init_avio(ptr noundef %0, ptr noundef captures(none) initializes((0, 4), (8, 16), (24, 32)) %1, ptr noundef %2) local_unnamed_addr #0 {
sub_0.critedge:
  %3 = getelementptr inbounds nuw i8, ptr %1, i64 8
  store ptr %2, ptr %3, align 8, !tbaa !4
  %4 = getelementptr inbounds nuw i8, ptr %1, i64 28
  store i32 0, ptr %4, align 4, !tbaa !16
  %5 = getelementptr inbounds nuw i8, ptr %1, i64 24
  store i32 0, ptr %5, align 8, !tbaa !17
  store i32 0, ptr %1, align 8, !tbaa !18
  %6 = getelementptr inbounds nuw i8, ptr %1, i64 16
  %7 = load ptr, ptr %3, align 8, !tbaa !4
  %8 = tail call i32 @avio_r8(ptr noundef %7) #11
  %9 = trunc i32 %8 to i8
  %10 = load i32, ptr %4, align 4, !tbaa !16
  %11 = add nsw i32 %10, 1
  store i32 %11, ptr %4, align 4, !tbaa !16
  %12 = sext i32 %10 to i64
  %13 = getelementptr inbounds [8 x i8], ptr %6, i64 0, i64 %12
  store i8 %9, ptr %13, align 1, !tbaa !19
  %14 = load ptr, ptr %3, align 8, !tbaa !4
  %15 = tail call i32 @avio_r8(ptr noundef %14) #11
  %16 = trunc i32 %15 to i8
  %17 = load i32, ptr %4, align 4, !tbaa !16
  %18 = add nsw i32 %17, 1
  store i32 %18, ptr %4, align 4, !tbaa !16
  %19 = sext i32 %17 to i64
  %20 = getelementptr inbounds [8 x i8], ptr %6, i64 0, i64 %19
  store i8 %16, ptr %20, align 1, !tbaa !19
  %21 = load i8, ptr %6, align 1
  %.not35 = icmp eq i8 %21, -1
  br i1 %.not35, label %.tail.thread, label %sub_027

.tail.thread:                                     ; preds = %sub_0.critedge
  %22 = getelementptr inbounds nuw i8, ptr %1, i64 17
  %23 = load i8, ptr %22, align 1
  %24 = icmp eq i8 %23, -2
  br i1 %24, label %.sink.split.sink.split, label %sub_031

sub_027:                                          ; preds = %sub_0.critedge
  %narrow = sub nuw i8 -2, %21
  %.not36 = icmp eq i8 %21, -2
  br i1 %.not36, label %sub_128, label %.tail26

sub_128:                                          ; preds = %sub_027
  %25 = getelementptr inbounds nuw i8, ptr %1, i64 17
  %26 = load i8, ptr %25, align 1
  %27 = xor i8 %26, -1
  br label %.tail26

.tail26:                                          ; preds = %sub_027, %sub_128
  %.in = phi i8 [ %narrow, %sub_027 ], [ %27, %sub_128 ]
  %28 = icmp eq i8 %.in, 0
  br i1 %28, label %.sink.split.sink.split, label %sub_031

sub_031:                                          ; preds = %.tail.thread, %.tail26
  %29 = load ptr, ptr %3, align 8, !tbaa !4
  %30 = tail call i32 @avio_r8(ptr noundef %29) #11
  %31 = trunc i32 %30 to i8
  %32 = load i32, ptr %4, align 4, !tbaa !16
  %33 = add nsw i32 %32, 1
  store i32 %33, ptr %4, align 4, !tbaa !16
  %34 = sext i32 %32 to i64
  %35 = getelementptr inbounds [8 x i8], ptr %6, i64 0, i64 %34
  store i8 %31, ptr %35, align 1, !tbaa !19
  %36 = load i8, ptr %6, align 1
  %37 = zext i8 %36 to i32
  %38 = sub nsw i32 239, %37
  %.not37 = icmp eq i8 %36, -17
  br i1 %.not37, label %sub_132, label %.tail30

sub_132:                                          ; preds = %sub_031
  %39 = getelementptr inbounds nuw i8, ptr %1, i64 17
  %40 = load i8, ptr %39, align 1
  %41 = zext i8 %40 to i32
  %42 = sub nsw i32 187, %41
  %.not38 = icmp eq i8 %40, -69
  br i1 %.not38, label %sub_2, label %.tail30

sub_2:                                            ; preds = %sub_132
  %43 = getelementptr inbounds nuw i8, ptr %1, i64 18
  %44 = load i8, ptr %43, align 1
  %45 = zext i8 %44 to i32
  %46 = sub nsw i32 191, %45
  br label %.tail30

.tail30:                                          ; preds = %sub_031, %sub_132, %sub_2
  %47 = phi i32 [ %38, %sub_031 ], [ %42, %sub_132 ], [ %46, %sub_2 ]
  %48 = icmp eq i32 %47, 0
  br i1 %48, label %.sink.split, label %51

.sink.split.sink.split:                           ; preds = %.tail26, %.tail.thread
  %.sink = phi i32 [ 1, %.tail.thread ], [ 2, %.tail26 ]
  store i32 %.sink, ptr %1, align 8, !tbaa !18
  br label %.sink.split

.sink.split:                                      ; preds = %.sink.split.sink.split, %.tail30
  %.sink41 = phi i32 [ 3, %.tail30 ], [ 2, %.sink.split.sink.split ]
  %49 = load i32, ptr %5, align 8, !tbaa !17
  %50 = add nsw i32 %49, %.sink41
  store i32 %50, ptr %5, align 8, !tbaa !17
  br label %51

51:                                               ; preds = %.sink.split, %.tail30
  %.not = icmp eq ptr %0, null
  br i1 %.not, label %55, label %52

52:                                               ; preds = %51
  %53 = load i32, ptr %1, align 8, !tbaa !18
  %.off = add i32 %53, -1
  %switch = icmp ult i32 %.off, 2
  br i1 %switch, label %54, label %55

54:                                               ; preds = %52
  tail call void (ptr, i32, ptr, ...) @av_log(ptr noundef nonnull %0, i32 noundef 32, ptr noundef nonnull @.str.3) #11
  br label %55

55:                                               ; preds = %52, %54, %51
  ret void
}